(lp0
(dp1
I0
(lp2
(lp3
(lp4
I1
aI2
aI3
aaa(lp5
I3
aasI1
(lp6
(lp7
(lp8
I1
aa(lp9
I2
aa(lp10
I3
aaa(lp11
I0
aI0
aI0
aasa(dp12
I0
(lp13
(lp14
(lp15
I1
aI2
aI3
aaa(lp16
I2
aasI1
(lp17
(lp18
(lp19
I1
aI2
aa(lp20
I3
aaa(lp21
I2
aI0
aasI2
(lp22
(lp23
(lp24
I1
aa(lp25
I2
aaa(lp26
I0
aI0
aasa(dp27
I0
(lp28
(lp29
(lp30
I1
aI2
aI3
aaa(lp31
I2
aasI1
(lp32
(lp33
(lp34
I1
aI3
aa(lp35
I2
aaa(lp36
I2
aI0
aasI2
(lp37
(lp38
(lp39
I1
aa(lp40
I3
aaa(lp41
I0
aI0
aasa(dp42
I0
(lp43
(lp44
(lp45
I1
aI2
aI3
aaa(lp46
I2
aasI1
(lp47
(lp48
(lp49
I1
aa(lp50
I2
aI3
aaa(lp51
I0
aI2
aasI2
(lp52
(lp53
(lp54
I2
aa(lp55
I3
aaa(lp56
I0
aI0
aasa.